target datalayout = "e-m:e-p270:32:32-p271:32:32-p272:64:64-i64:64-i128:128-f80:128-n8:16:32:64-S128"
target triple = "x86_64-pc-linux-gnu"

@.str = private unnamed_addr constant [47 x i8] c"lineCreate: Unable to allocate memory for ret\0A\00", align 1
@.str.1 = private unnamed_addr constant [13 x i8] c"line != NULL\00", align 1
@.str.2 = private unnamed_addr constant [108 x i8] c"generated/home/dtcxzyw/WorkSpace/Projects/compilers/llvm-opt-benchmark/bench/clamav/clamav/libclamav/line.c\00", align 1
@__PRETTY_FUNCTION__.lineLink = private unnamed_addr constant [27 x i8] c"line_t *lineLink(line_t *)\00", align 1
@.str.3 = private unnamed_addr constant [36 x i8] c"lineLink: linkcount too large (%s)\0A\00", align 1

; Function Attrs: nounwind uwtable
define ptr @lineCreate(ptr noundef %0) #0 {
  %2 = alloca ptr, align 8
  %3 = alloca ptr, align 8
  %4 = alloca i64, align 8
  %5 = alloca ptr, align 8
  store ptr %0, ptr %3, align 8
  %6 = load ptr, ptr %3, align 8
  %7 = call i64 @strlen(ptr noundef %6) #6
  store i64 %7, ptr %4, align 8
  %8 = load i64, ptr %4, align 8
  %9 = add i64 %8, 2
  %10 = call ptr @cli_max_malloc(i64 noundef %9)
  store ptr %10, ptr %5, align 8
  %11 = load ptr, ptr %5, align 8
  %12 = icmp eq ptr %11, null
  br i1 %12, label %13, label %14

13:                                               ; preds = %1
  call void (ptr, ...) @cli_errmsg(ptr noundef @.str)
  store ptr null, ptr %2, align 8
  br label %26

14:                                               ; preds = %1
  %15 = load ptr, ptr %5, align 8
  %16 = getelementptr inbounds i8, ptr %15, i64 0
  store i8 1, ptr %16, align 1
  %17 = load ptr, ptr %5, align 8
  %18 = getelementptr inbounds i8, ptr %17, i64 1
  %19 = load ptr, ptr %3, align 8
  %20 = load i64, ptr %4, align 8
  call void @llvm.memcpy.p0.p0.i64(ptr align 1 %18, ptr align 1 %19, i64 %20, i1 false)
  %21 = load ptr, ptr %5, align 8
  %22 = load i64, ptr %4, align 8
  %23 = add i64 %22, 1
  %24 = getelementptr inbounds i8, ptr %21, i64 %23
  store i8 0, ptr %24, align 1
  %25 = load ptr, ptr %5, align 8
  store ptr %25, ptr %2, align 8
  br label %26

26:                                               ; preds = %14, %13
  %27 = load ptr, ptr %2, align 8
  ret ptr %27
}

; Function Attrs: nounwind willreturn memory(read)
declare i64 @strlen(ptr noundef) #1

declare ptr @cli_max_malloc(i64 noundef) #2

declare void @cli_errmsg(ptr noundef, ...) #2

; Function Attrs: nocallback nofree nounwind willreturn memory(argmem: readwrite)
declare void @llvm.memcpy.p0.p0.i64(ptr noalias nocapture writeonly, ptr noalias nocapture readonly, i64, i1 immarg) #3

; Function Attrs: nounwind uwtable
define ptr @lineLink(ptr noundef %0) #0 {
  %2 = alloca ptr, align 8
  %3 = alloca ptr, align 8
  store ptr %0, ptr %3, align 8
  %4 = load ptr, ptr %3, align 8
  %5 = icmp ne ptr %4, null
  br i1 %5, label %6, label %7

6:                                                ; preds = %1
  br label %8

7:                                                ; preds = %1
  call void @__assert_fail(ptr noundef @.str.1, ptr noundef @.str.2, i32 noundef 91, ptr noundef @__PRETTY_FUNCTION__.lineLink) #7
  unreachable

8:                                                ; preds = %6
  %9 = load ptr, ptr %3, align 8
  %10 = getelementptr inbounds i8, ptr %9, i64 0
  %11 = load i8, ptr %10, align 1
  %12 = zext i8 %11 to i32
  %13 = icmp eq i32 %12, 255
  br i1 %13, label %14, label %20

14:                                               ; preds = %8
  %15 = load ptr, ptr %3, align 8
  %16 = call ptr @lineGetData(ptr noundef %15)
  call void (ptr, ...) @cli_dbgmsg(ptr noundef @.str.3, ptr noundef %16)
  %17 = load ptr, ptr %3, align 8
  %18 = call ptr @lineGetData(ptr noundef %17)
  %19 = call ptr @lineCreate(ptr noundef %18)
  store ptr %19, ptr %2, align 8
  br label %26

20:                                               ; preds = %8
  %21 = load ptr, ptr %3, align 8
  %22 = getelementptr inbounds i8, ptr %21, i64 0
  %23 = load i8, ptr %22, align 1
  %24 = add i8 %23, 1
  store i8 %24, ptr %22, align 1
  %25 = load ptr, ptr %3, align 8
  store ptr %25, ptr %2, align 8
  br label %26

26:                                               ; preds = %20, %14
  %27 = load ptr, ptr %2, align 8
  ret ptr %27
}

; Function Attrs: noreturn nounwind
declare void @__assert_fail(ptr noundef, ptr noundef, i32 noundef, ptr noundef) #4

declare void @cli_dbgmsg(ptr noundef, ...) #2

; Function Attrs: nounwind uwtable
define ptr @lineGetData(ptr noundef %0) #0 {
  %2 = alloca ptr, align 8
  store ptr %0, ptr %2, align 8
  %3 = load ptr, ptr %2, align 8
  %4 = icmp ne ptr %3, null
  br i1 %4, label %5, label %8

5:                                                ; preds = %1
  %6 = load ptr, ptr %2, align 8
  %7 = getelementptr inbounds i8, ptr %6, i64 1
  br label %9

8:                                                ; preds = %1
  br label %9

9:                                                ; preds = %8, %5
  %10 = phi ptr [ %7, %5 ], [ null, %8 ]
  ret ptr %10
}

; Function Attrs: nounwind uwtable
define ptr @lineUnlink(ptr noundef %0) #0 {
  %2 = alloca ptr, align 8
  %3 = alloca ptr, align 8
  store ptr %0, ptr %3, align 8
  %4 = load ptr, ptr %3, align 8
  %5 = getelementptr inbounds i8, ptr %4, i64 0
  %6 = load i8, ptr %5, align 1
  %7 = add i8 %6, -1
  store i8 %7, ptr %5, align 1
  %8 = sext i8 %7 to i32
  %9 = icmp eq i32 %8, 0
  br i1 %9, label %10, label %12

10:                                               ; preds = %1
  %11 = load ptr, ptr %3, align 8
  call void @free(ptr noundef %11) #8
  store ptr null, ptr %2, align 8
  br label %14

12:                                               ; preds = %1
  %13 = load ptr, ptr %3, align 8
  store ptr %13, ptr %2, align 8
  br label %14

14:                                               ; preds = %12, %10
  %15 = load ptr, ptr %2, align 8
  ret ptr %15
}

; Function Attrs: nounwind
declare void @free(ptr noundef) #5


!llvm.module.flags = !{!0, !1, !2, !3}

!0 = !{i32 1, !"wchar_size", i32 4}
!1 = !{i32 8, !"PIC Level", i32 2}
!2 = !{i32 7, !"uwtable", i32 2}
!3 = !{i32 7, !"frame-pointer", i32 2}
