; ModuleID = 'bench/clamav/original/line.c.ll'
source_filename = "bench/clamav/original/line.c.ll"
target datalayout = "e-m:e-p270:32:32-p271:32:32-p272:64:64-i64:64-i128:128-f80:128-n8:16:32:64-S128"
target triple = "x86_64-pc-linux-gnu"

@.str = private unnamed_addr constant [47 x i8] c"lineCreate: Unable to allocate memory for ret\0A\00", align 1
@.str.1 = private unnamed_addr constant [13 x i8] c"line != NULL\00", align 1
@.str.2 = private unnamed_addr constant [108 x i8] c"generated/home/dtcxzyw/WorkSpace/Projects/compilers/llvm-opt-benchmark/bench/clamav/clamav/libclamav/line.c\00", align 1
@__PRETTY_FUNCTION__.lineLink = private unnamed_addr constant [27 x i8] c"line_t *lineLink(line_t *)\00", align 1
@.str.3 = private unnamed_addr constant [36 x i8] c"lineLink: linkcount too large (%s)\0A\00", align 1

; Function Attrs: nounwind uwtable
define ptr @lineCreate(ptr nocapture noundef readonly %0) local_unnamed_addr #0 {
  %2 = tail call i64 @strlen(ptr noundef nonnull dereferenceable(1) %0) #8
  %3 = add i64 %2, 2
  %4 = tail call ptr @cli_max_malloc(i64 noundef %3) #9
  %5 = icmp eq ptr %4, null
  br i1 %5, label %6, label %7

6:                                                ; preds = %1
  tail call void (ptr, ...) @cli_errmsg(ptr noundef nonnull @.str) #9
  br label %11

7:                                                ; preds = %1
  store i8 1, ptr %4, align 1
  %8 = getelementptr inbounds i8, ptr %4, i64 1
  tail call void @llvm.memcpy.p0.p0.i64(ptr nonnull align 1 %8, ptr align 1 %0, i64 %2, i1 false)
  %9 = getelementptr i8, ptr %4, i64 %2
  %10 = getelementptr i8, ptr %9, i64 1
  store i8 0, ptr %10, align 1
  br label %11

11:                                               ; preds = %7, %6
  ret ptr %4
}

; Function Attrs: mustprogress nofree nounwind willreturn memory(argmem: read)
declare i64 @strlen(ptr nocapture noundef) local_unnamed_addr #1

declare ptr @cli_max_malloc(i64 noundef) local_unnamed_addr #2

declare void @cli_errmsg(ptr noundef, ...) local_unnamed_addr #2

; Function Attrs: mustprogress nocallback nofree nounwind willreturn memory(argmem: readwrite)
declare void @llvm.memcpy.p0.p0.i64(ptr noalias nocapture writeonly, ptr noalias nocapture readonly, i64, i1 immarg) #3

; Function Attrs: nounwind uwtable
define ptr @lineLink(ptr noundef %0) local_unnamed_addr #0 {
  %.not = icmp eq ptr %0, null
  br i1 %.not, label %2, label %3

2:                                                ; preds = %1
  tail call void @__assert_fail(ptr noundef nonnull @.str.1, ptr noundef nonnull @.str.2, i32 noundef 91, ptr noundef nonnull @__PRETTY_FUNCTION__.lineLink) #10
  unreachable

3:                                                ; preds = %1
  %4 = load i8, ptr %0, align 1
  %5 = icmp eq i8 %4, -1
  br i1 %5, label %6, label %17

6:                                                ; preds = %3
  %7 = getelementptr inbounds i8, ptr %0, i64 1
  tail call void (ptr, ...) @cli_dbgmsg(ptr noundef nonnull @.str.3, ptr noundef nonnull %7) #9
  %8 = tail call i64 @strlen(ptr noundef nonnull dereferenceable(1) %7) #8
  %9 = add i64 %8, 2
  %10 = tail call ptr @cli_max_malloc(i64 noundef %9) #9
  %11 = icmp eq ptr %10, null
  br i1 %11, label %12, label %13

12:                                               ; preds = %6
  tail call void (ptr, ...) @cli_errmsg(ptr noundef nonnull @.str) #9
  br label %lineCreate.exit

13:                                               ; preds = %6
  store i8 1, ptr %10, align 1
  %14 = getelementptr inbounds i8, ptr %10, i64 1
  tail call void @llvm.memcpy.p0.p0.i64(ptr nonnull align 1 %14, ptr nonnull align 1 %7, i64 %8, i1 false)
  %15 = getelementptr i8, ptr %10, i64 %8
  %16 = getelementptr i8, ptr %15, i64 1
  store i8 0, ptr %16, align 1
  br label %lineCreate.exit

17:                                               ; preds = %3
  %18 = add nuw i8 %4, 1
  store i8 %18, ptr %0, align 1
  br label %lineCreate.exit

lineCreate.exit:                                  ; preds = %13, %12, %17
  %.0 = phi ptr [ %0, %17 ], [ null, %12 ], [ %10, %13 ]
  ret ptr %.0
}

; Function Attrs: noreturn nounwind
declare void @__assert_fail(ptr noundef, ptr noundef, i32 noundef, ptr noundef) local_unnamed_addr #4

declare void @cli_dbgmsg(ptr noundef, ...) local_unnamed_addr #2

; Function Attrs: mustprogress nofree norecurse nosync nounwind willreturn memory(none) uwtable
define ptr @lineGetData(ptr noundef readnone %0) local_unnamed_addr #5 {
  %.not = icmp eq ptr %0, null
  %2 = getelementptr inbounds i8, ptr %0, i64 1
  %3 = select i1 %.not, ptr null, ptr %2
  ret ptr %3
}

; Function Attrs: mustprogress nounwind willreturn memory(argmem: readwrite, inaccessiblemem: readwrite) uwtable
define noundef ptr @lineUnlink(ptr noundef %0) local_unnamed_addr #6 {
  %2 = load i8, ptr %0, align 1
  %3 = add i8 %2, -1
  store i8 %3, ptr %0, align 1
  %4 = icmp eq i8 %3, 0
  br i1 %4, label %5, label %6

5:                                                ; preds = %1
  tail call void @free(ptr noundef nonnull %0) #9
  br label %6

6:                                                ; preds = %1, %5
  %.0 = phi ptr [ null, %5 ], [ %0, %1 ]
  ret ptr %.0
}

; Function Attrs: mustprogress nounwind willreturn allockind("free") memory(argmem: readwrite, inaccessiblemem: readwrite)
declare void @free(ptr allocptr nocapture noundef) local_unnamed_addr #7


!llvm.module.flags = !{!0, !1, !2, !3}

!0 = !{i32 1, !"wchar_size", i32 4}
!1 = !{i32 8, !"PIC Level", i32 2}
!2 = !{i32 7, !"uwtable", i32 2}
!3 = !{i32 7, !"frame-pointer", i32 2}
